target datalayout = "e-m:e-p270:32:32-p271:32:32-p272:64:64-i64:64-i128:128-f80:128-n8:16:32:64-S128"
target triple = "x86_64-unknown-linux-gnu"

%"class.llvh::SmallVectorBase" = type { ptr, i32, i32 }
%"class.hermes::RegisterFile" = type { %"class.llvh::BitVector" }
%"class.llvh::BitVector" = type <{ %"class.llvh::MutableArrayRef", i32, [4 x i8] }>
%"class.llvh::MutableArrayRef" = type { %"class.llvh::ArrayRef" }
%"class.llvh::ArrayRef" = type { ptr, i64 }
%"struct.llvh::AlignedCharArray.7" = type { [8 x i8] }
%"class.llvh::SmallVectorImpl.12" = type { %"class.llvh::SmallVectorTemplateBase.13" }
%"class.llvh::SmallVectorTemplateBase.13" = type { %"class.llvh::SmallVectorTemplateCommon.14" }
%"class.llvh::SmallVectorTemplateCommon.14" = type { %"class.llvh::SmallVectorBase" }
%"struct.llvh::AlignedCharArrayUnion.16" = type { %"struct.llvh::AlignedCharArray.7" }
%"class.hermes::RegisterAllocator" = type { ptr, %"class.llvh::DenseMap", %"class.llvh::DenseMap.8", %"class.llvh::SmallVector.11", %"class.llvh::SmallVector.17", %"class.llvh::DenseMap.24", %"class.hermes::RegisterFile", i32, i64, ptr }
%"class.llvh::DenseMap" = type <{ ptr, i32, i32, i32, [4 x i8] }>
%"class.llvh::DenseMap.8" = type <{ ptr, i32, i32, i32, [4 x i8] }>
%"class.llvh::SmallVector.11" = type { %"class.llvh::SmallVectorImpl.12", %"struct.llvh::SmallVectorStorage.15" }
%"struct.llvh::SmallVectorStorage.15" = type { [32 x %"struct.llvh::AlignedCharArrayUnion.16"] }
%"class.llvh::SmallVector.17" = type { %"class.llvh::SmallVectorImpl.18", %"struct.llvh::SmallVectorStorage.21" }
%"class.llvh::SmallVectorImpl.18" = type { %"class.llvh::SmallVectorTemplateBase.19" }
%"class.llvh::SmallVectorTemplateBase.19" = type { %"class.llvh::SmallVectorTemplateCommon.20" }
%"class.llvh::SmallVectorTemplateCommon.20" = type { %"class.llvh::SmallVectorBase" }
%"struct.llvh::SmallVectorStorage.21" = type { [32 x %"struct.llvh::AlignedCharArrayUnion.22"] }
%"struct.llvh::AlignedCharArrayUnion.22" = type { %"struct.llvh::AlignedCharArray.23" }
%"struct.llvh::AlignedCharArray.23" = type { [48 x i8] }
%"class.llvh::DenseMap.24" = type <{ ptr, i32, i32, i32, [4 x i8] }>
%"struct.std::pair.93" = type <{ ptr, i32, [4 x i8] }>
%"struct.llvh::detail::DenseMapPair.92" = type { %"struct.std::pair.base", [4 x i8] }
%"struct.std::pair.base" = type <{ ptr, i32 }>

; Function Attrs: mustprogress nounwind uwtable
define linkonce_odr hidden noundef i32 @_ZN4llvh12DenseMapInfoIPN6hermes11InstructionEE12getHashValueEPKS2_(ptr noundef %PtrVal) #0 comdat align 2 {
entry:
  %PtrVal.addr = alloca ptr, align 8
  store ptr %PtrVal, ptr %PtrVal.addr, align 8
  %0 = load ptr, ptr %PtrVal.addr, align 8
  %1 = ptrtoint ptr %0 to i64
  %conv = trunc i64 %1 to i32
  %shr = lshr i32 %conv, 4
  %2 = load ptr, ptr %PtrVal.addr, align 8
  %3 = ptrtoint ptr %2 to i64
  %conv1 = trunc i64 %3 to i32
  %shr2 = lshr i32 %conv1, 9
  %xor = xor i32 %shr, %shr2
  ret i32 %xor
}

; Function Attrs: mustprogress nounwind uwtable
define linkonce_odr hidden noundef ptr @_ZN4llvh12DenseMapInfoIPN6hermes11InstructionEE15getTombstoneKeyEv() #0 comdat align 2 {
entry:
  %Val = alloca i64, align 8
  store i64 -2, ptr %Val, align 8
  %0 = load i64, ptr %Val, align 8
  %shl = shl i64 %0, 3
  store i64 %shl, ptr %Val, align 8
  %1 = load i64, ptr %Val, align 8
  %2 = inttoptr i64 %1 to ptr
  ret ptr %2
}

; Function Attrs: mustprogress nounwind uwtable
define linkonce_odr hidden noundef ptr @_ZN4llvh12DenseMapInfoIPN6hermes11InstructionEE11getEmptyKeyEv() #0 comdat align 2 {
entry:
  %Val = alloca i64, align 8
  store i64 -1, ptr %Val, align 8
  %0 = load i64, ptr %Val, align 8
  %shl = shl i64 %0, 3
  store i64 %shl, ptr %Val, align 8
  %1 = load i64, ptr %Val, align 8
  %2 = inttoptr i64 %1 to ptr
  ret ptr %2
}

; Function Attrs: mustprogress nounwind uwtable
define linkonce_odr hidden noundef i32 @_ZNK4llvh8DenseMapIPN6hermes11InstructionEjNS_12DenseMapInfoIS3_EENS_6detail12DenseMapPairIS3_jEEE13getNumBucketsEv(ptr noundef nonnull align 8 dereferenceable(20) %this) #0 comdat align 2 {
entry:
  %this.addr = alloca ptr, align 8
  store ptr %this, ptr %this.addr, align 8
  %this1 = load ptr, ptr %this.addr, align 8
  %NumBuckets = getelementptr inbounds %"class.llvh::DenseMap.8", ptr %this1, i32 0, i32 3
  %0 = load i32, ptr %NumBuckets, align 8
  ret i32 %0
}

; Function Attrs: mustprogress nounwind uwtable
define linkonce_odr hidden noundef ptr @_ZNK4llvh8DenseMapIPN6hermes11InstructionEjNS_12DenseMapInfoIS3_EENS_6detail12DenseMapPairIS3_jEEE10getBucketsEv(ptr noundef nonnull align 8 dereferenceable(20) %this) #0 comdat align 2 {
entry:
  %this.addr = alloca ptr, align 8
  store ptr %this, ptr %this.addr, align 8
  %this1 = load ptr, ptr %this.addr, align 8
  %Buckets = getelementptr inbounds %"class.llvh::DenseMap.8", ptr %this1, i32 0, i32 0
  %0 = load ptr, ptr %Buckets, align 8
  ret ptr %0
}

; Function Attrs: mustprogress nounwind uwtable
define linkonce_odr hidden noundef zeroext i1 @_ZN4llvh12DenseMapInfoIPN6hermes11InstructionEE7isEqualEPKS2_S6_(ptr noundef %LHS, ptr noundef %RHS) #0 comdat align 2 {
entry:
  %LHS.addr = alloca ptr, align 8
  %RHS.addr = alloca ptr, align 8
  store ptr %LHS, ptr %LHS.addr, align 8
  store ptr %RHS, ptr %RHS.addr, align 8
  %0 = load ptr, ptr %LHS.addr, align 8
  %1 = load ptr, ptr %RHS.addr, align 8
  %cmp = icmp eq ptr %0, %1
  ret i1 %cmp
}

; Function Attrs: mustprogress nounwind uwtable
define linkonce_odr hidden noundef nonnull align 8 dereferenceable(8) ptr @_ZNK4llvh6detail12DenseMapPairIPN6hermes11InstructionEjE8getFirstEv(ptr noundef nonnull align 8 dereferenceable(12) %this) #0 comdat align 2 {
entry:
  %this.addr = alloca ptr, align 8
  store ptr %this, ptr %this.addr, align 8
  %this1 = load ptr, ptr %this.addr, align 8
  %first = getelementptr inbounds %"struct.std::pair.93", ptr %this1, i32 0, i32 0
  ret ptr %first
}

; Function Attrs: mustprogress nounwind uwtable
define linkonce_odr hidden noundef i32 @_ZN4llvh12DenseMapBaseINS_8DenseMapIPN6hermes11InstructionEjNS_12DenseMapInfoIS4_EENS_6detail12DenseMapPairIS4_jEEEES4_jS6_S9_E12getHashValueIPKS3_EEjRKT_(ptr noundef nonnull align 8 dereferenceable(8) %Val) #0 comdat align 2 {
entry:
  %Val.addr = alloca ptr, align 8
  store ptr %Val, ptr %Val.addr, align 8
  %0 = load ptr, ptr %Val.addr, align 8
  %1 = load ptr, ptr %0, align 8
  %call = call noundef i32 @_ZN4llvh12DenseMapInfoIPN6hermes11InstructionEE12getHashValueEPKS2_(ptr noundef %1)
  ret i32 %call
}

; Function Attrs: mustprogress nounwind uwtable
define linkonce_odr hidden noundef ptr @_ZN4llvh12DenseMapBaseINS_8DenseMapIPN6hermes11InstructionEjNS_12DenseMapInfoIS4_EENS_6detail12DenseMapPairIS4_jEEEES4_jS6_S9_E15getTombstoneKeyEv() #0 comdat align 2 {
entry:
  %call = call noundef ptr @_ZN4llvh12DenseMapInfoIPN6hermes11InstructionEE15getTombstoneKeyEv()
  ret ptr %call
}

; Function Attrs: mustprogress nounwind uwtable
define linkonce_odr hidden noundef ptr @_ZN4llvh12DenseMapBaseINS_8DenseMapIPN6hermes11InstructionEjNS_12DenseMapInfoIS4_EENS_6detail12DenseMapPairIS4_jEEEES4_jS6_S9_E11getEmptyKeyEv() #0 comdat align 2 {
entry:
  %call = call noundef ptr @_ZN4llvh12DenseMapInfoIPN6hermes11InstructionEE11getEmptyKeyEv()
  ret ptr %call
}

; Function Attrs: mustprogress nounwind uwtable
define linkonce_odr hidden noundef i32 @_ZNK4llvh12DenseMapBaseINS_8DenseMapIPN6hermes11InstructionEjNS_12DenseMapInfoIS4_EENS_6detail12DenseMapPairIS4_jEEEES4_jS6_S9_E13getNumBucketsEv(ptr noundef nonnull align 1 dereferenceable(1) %this) #0 comdat align 2 {
entry:
  %this.addr = alloca ptr, align 8
  store ptr %this, ptr %this.addr, align 8
  %this1 = load ptr, ptr %this.addr, align 8
  %call = call noundef i32 @_ZNK4llvh8DenseMapIPN6hermes11InstructionEjNS_12DenseMapInfoIS3_EENS_6detail12DenseMapPairIS3_jEEE13getNumBucketsEv(ptr noundef nonnull align 8 dereferenceable(20) %this1)
  ret i32 %call
}

; Function Attrs: mustprogress nounwind uwtable
define linkonce_odr hidden noundef ptr @_ZNK4llvh12DenseMapBaseINS_8DenseMapIPN6hermes11InstructionEjNS_12DenseMapInfoIS4_EENS_6detail12DenseMapPairIS4_jEEEES4_jS6_S9_E10getBucketsEv(ptr noundef nonnull align 1 dereferenceable(1) %this) #0 comdat align 2 {
entry:
  %this.addr = alloca ptr, align 8
  store ptr %this, ptr %this.addr, align 8
  %this1 = load ptr, ptr %this.addr, align 8
  %call = call noundef ptr @_ZNK4llvh8DenseMapIPN6hermes11InstructionEjNS_12DenseMapInfoIS3_EENS_6detail12DenseMapPairIS3_jEEE10getBucketsEv(ptr noundef nonnull align 8 dereferenceable(20) %this1)
  ret ptr %call
}

; Function Attrs: mustprogress nounwind uwtable
define linkonce_odr hidden noundef zeroext i1 @_ZNK4llvh12DenseMapBaseINS_8DenseMapIPN6hermes11InstructionEjNS_12DenseMapInfoIS4_EENS_6detail12DenseMapPairIS4_jEEEES4_jS6_S9_E15LookupBucketForIPKS3_EEbRKT_RPKS9_(ptr noundef nonnull align 1 dereferenceable(1) %this, ptr noundef nonnull align 8 dereferenceable(8) %Val, ptr noundef nonnull align 8 dereferenceable(8) %FoundBucket) #0 comdat align 2 {
entry:
  %retval = alloca i1, align 1
  %this.addr = alloca ptr, align 8
  %Val.addr = alloca ptr, align 8
  %FoundBucket.addr = alloca ptr, align 8
  %BucketsPtr = alloca ptr, align 8
  %NumBuckets = alloca i32, align 4
  %FoundTombstone = alloca ptr, align 8
  %EmptyKey = alloca ptr, align 8
  %TombstoneKey = alloca ptr, align 8
  %BucketNo = alloca i32, align 4
  %ProbeAmt = alloca i32, align 4
  %ThisBucket = alloca ptr, align 8
  store ptr %this, ptr %this.addr, align 8
  store ptr %Val, ptr %Val.addr, align 8
  store ptr %FoundBucket, ptr %FoundBucket.addr, align 8
  %this1 = load ptr, ptr %this.addr, align 8
  %call = call noundef ptr @_ZNK4llvh12DenseMapBaseINS_8DenseMapIPN6hermes11InstructionEjNS_12DenseMapInfoIS4_EENS_6detail12DenseMapPairIS4_jEEEES4_jS6_S9_E10getBucketsEv(ptr noundef nonnull align 1 dereferenceable(1) %this1)
  store ptr %call, ptr %BucketsPtr, align 8
  %call2 = call noundef i32 @_ZNK4llvh12DenseMapBaseINS_8DenseMapIPN6hermes11InstructionEjNS_12DenseMapInfoIS4_EENS_6detail12DenseMapPairIS4_jEEEES4_jS6_S9_E13getNumBucketsEv(ptr noundef nonnull align 1 dereferenceable(1) %this1)
  store i32 %call2, ptr %NumBuckets, align 4
  %0 = load i32, ptr %NumBuckets, align 4
  %cmp = icmp eq i32 %0, 0
  br i1 %cmp, label %if.then, label %if.end

if.then:                                          ; preds = %entry
  %1 = load ptr, ptr %FoundBucket.addr, align 8
  store ptr null, ptr %1, align 8
  store i1 false, ptr %retval, align 1
  br label %return

if.end:                                           ; preds = %entry
  store ptr null, ptr %FoundTombstone, align 8
  %call3 = call noundef ptr @_ZN4llvh12DenseMapBaseINS_8DenseMapIPN6hermes11InstructionEjNS_12DenseMapInfoIS4_EENS_6detail12DenseMapPairIS4_jEEEES4_jS6_S9_E11getEmptyKeyEv()
  store ptr %call3, ptr %EmptyKey, align 8
  %call4 = call noundef ptr @_ZN4llvh12DenseMapBaseINS_8DenseMapIPN6hermes11InstructionEjNS_12DenseMapInfoIS4_EENS_6detail12DenseMapPairIS4_jEEEES4_jS6_S9_E15getTombstoneKeyEv()
  store ptr %call4, ptr %TombstoneKey, align 8
  %2 = load ptr, ptr %Val.addr, align 8
  %call5 = call noundef i32 @_ZN4llvh12DenseMapBaseINS_8DenseMapIPN6hermes11InstructionEjNS_12DenseMapInfoIS4_EENS_6detail12DenseMapPairIS4_jEEEES4_jS6_S9_E12getHashValueIPKS3_EEjRKT_(ptr noundef nonnull align 8 dereferenceable(8) %2)
  %3 = load i32, ptr %NumBuckets, align 4
  %sub = sub i32 %3, 1
  %and = and i32 %call5, %sub
  store i32 %and, ptr %BucketNo, align 4
  store i32 1, ptr %ProbeAmt, align 4
  br label %while.body

while.body:                                       ; preds = %if.end18, %if.end
  %4 = load ptr, ptr %BucketsPtr, align 8
  %5 = load i32, ptr %BucketNo, align 4
  %idx.ext = zext i32 %5 to i64
  %add.ptr = getelementptr inbounds %"struct.llvh::detail::DenseMapPair.92", ptr %4, i64 %idx.ext
  store ptr %add.ptr, ptr %ThisBucket, align 8
  %6 = load ptr, ptr %Val.addr, align 8
  %7 = load ptr, ptr %6, align 8
  %8 = load ptr, ptr %ThisBucket, align 8
  %call6 = call noundef nonnull align 8 dereferenceable(8) ptr @_ZNK4llvh6detail12DenseMapPairIPN6hermes11InstructionEjE8getFirstEv(ptr noundef nonnull align 8 dereferenceable(12) %8)
  %9 = load ptr, ptr %call6, align 8
  %call7 = call noundef zeroext i1 @_ZN4llvh12DenseMapInfoIPN6hermes11InstructionEE7isEqualEPKS2_S6_(ptr noundef %7, ptr noundef %9)
  br i1 %call7, label %if.then8, label %if.end9

if.then8:                                         ; preds = %while.body
  %10 = load ptr, ptr %ThisBucket, align 8
  %11 = load ptr, ptr %FoundBucket.addr, align 8
  store ptr %10, ptr %11, align 8
  store i1 true, ptr %retval, align 1
  br label %return

if.end9:                                          ; preds = %while.body
  %12 = load ptr, ptr %ThisBucket, align 8
  %call10 = call noundef nonnull align 8 dereferenceable(8) ptr @_ZNK4llvh6detail12DenseMapPairIPN6hermes11InstructionEjE8getFirstEv(ptr noundef nonnull align 8 dereferenceable(12) %12)
  %13 = load ptr, ptr %call10, align 8
  %14 = load ptr, ptr %EmptyKey, align 8
  %call11 = call noundef zeroext i1 @_ZN4llvh12DenseMapInfoIPN6hermes11InstructionEE7isEqualEPKS2_S6_(ptr noundef %13, ptr noundef %14)
  br i1 %call11, label %if.then12, label %if.end13

if.then12:                                        ; preds = %if.end9
  %15 = load ptr, ptr %FoundTombstone, align 8
  %tobool = icmp ne ptr %15, null
  br i1 %tobool, label %cond.true, label %cond.false

cond.true:                                        ; preds = %if.then12
  %16 = load ptr, ptr %FoundTombstone, align 8
  br label %cond.end

cond.false:                                       ; preds = %if.then12
  %17 = load ptr, ptr %ThisBucket, align 8
  br label %cond.end

cond.end:                                         ; preds = %cond.false, %cond.true
  %cond = phi ptr [ %16, %cond.true ], [ %17, %cond.false ]
  %18 = load ptr, ptr %FoundBucket.addr, align 8
  store ptr %cond, ptr %18, align 8
  store i1 false, ptr %retval, align 1
  br label %return

if.end13:                                         ; preds = %if.end9
  %19 = load ptr, ptr %ThisBucket, align 8
  %call14 = call noundef nonnull align 8 dereferenceable(8) ptr @_ZNK4llvh6detail12DenseMapPairIPN6hermes11InstructionEjE8getFirstEv(ptr noundef nonnull align 8 dereferenceable(12) %19)
  %20 = load ptr, ptr %call14, align 8
  %21 = load ptr, ptr %TombstoneKey, align 8
  %call15 = call noundef zeroext i1 @_ZN4llvh12DenseMapInfoIPN6hermes11InstructionEE7isEqualEPKS2_S6_(ptr noundef %20, ptr noundef %21)
  br i1 %call15, label %land.lhs.true, label %if.end18

land.lhs.true:                                    ; preds = %if.end13
  %22 = load ptr, ptr %FoundTombstone, align 8
  %tobool16 = icmp ne ptr %22, null
  br i1 %tobool16, label %if.end18, label %if.then17

if.then17:                                        ; preds = %land.lhs.true
  %23 = load ptr, ptr %ThisBucket, align 8
  store ptr %23, ptr %FoundTombstone, align 8
  br label %if.end18

if.end18:                                         ; preds = %if.then17, %land.lhs.true, %if.end13
  %24 = load i32, ptr %ProbeAmt, align 4
  %inc = add i32 %24, 1
  store i32 %inc, ptr %ProbeAmt, align 4
  %25 = load i32, ptr %BucketNo, align 4
  %add = add i32 %25, %24
  store i32 %add, ptr %BucketNo, align 4
  %26 = load i32, ptr %NumBuckets, align 4
  %sub19 = sub i32 %26, 1
  %27 = load i32, ptr %BucketNo, align 4
  %and20 = and i32 %27, %sub19
  store i32 %and20, ptr %BucketNo, align 4
  br label %while.body, !llvm.loop !70

return:                                           ; preds = %cond.end, %if.then8, %if.then
  %28 = load i1, ptr %retval, align 1
  ret i1 %28
}

; Function Attrs: mustprogress nounwind uwtable
define linkonce_odr hidden noundef i32 @_ZNK4llvh12DenseMapBaseINS_8DenseMapIPN6hermes11InstructionEjNS_12DenseMapInfoIS4_EENS_6detail12DenseMapPairIS4_jEEEES4_jS6_S9_E5countEPKS3_(ptr noundef nonnull align 1 dereferenceable(1) %this, ptr noundef %Val) #0 comdat align 2 {
entry:
  %this.addr = alloca ptr, align 8
  %Val.addr = alloca ptr, align 8
  %TheBucket = alloca ptr, align 8
  store ptr %this, ptr %this.addr, align 8
  store ptr %Val, ptr %Val.addr, align 8
  %this1 = load ptr, ptr %this.addr, align 8
  %call = call noundef zeroext i1 @_ZNK4llvh12DenseMapBaseINS_8DenseMapIPN6hermes11InstructionEjNS_12DenseMapInfoIS4_EENS_6detail12DenseMapPairIS4_jEEEES4_jS6_S9_E15LookupBucketForIPKS3_EEbRKT_RPKS9_(ptr noundef nonnull align 1 dereferenceable(1) %this1, ptr noundef nonnull align 8 dereferenceable(8) %Val.addr, ptr noundef nonnull align 8 dereferenceable(8) %TheBucket)
  %cond = select i1 %call, i32 1, i32 0
  ret i32 %cond
}

; Function Attrs: mustprogress nounwind uwtable
define hidden noundef zeroext i1 @_ZN6hermes17RegisterAllocator20hasInstructionNumberEPNS_11InstructionE(ptr noundef nonnull align 8 dereferenceable(1952) %this, ptr noundef %I) #0 align 2 {
entry:
  %this.addr = alloca ptr, align 8
  %I.addr = alloca ptr, align 8
  store ptr %this, ptr %this.addr, align 8
  store ptr %I, ptr %I.addr, align 8
  %this1 = load ptr, ptr %this.addr, align 8
  %instructionNumbers_ = getelementptr inbounds %"class.hermes::RegisterAllocator", ptr %this1, i32 0, i32 2
  %0 = load ptr, ptr %I.addr, align 8
  %call = call noundef i32 @_ZNK4llvh12DenseMapBaseINS_8DenseMapIPN6hermes11InstructionEjNS_12DenseMapInfoIS4_EENS_6detail12DenseMapPairIS4_jEEEES4_jS6_S9_E5countEPKS3_(ptr noundef nonnull align 1 dereferenceable(1) %instructionNumbers_, ptr noundef %0)
  %tobool = icmp ne i32 %call, 0
  ret i1 %tobool
}