; Function Attrs: mustprogress nofree norecurse nosync nounwind willreturn memory(read, inaccessiblemem: none) uwtable
define hidden noundef zeroext i1 @_ZN6hermes17RegisterAllocator20hasInstructionNumberEPNS_11InstructionE(ptr nocapture noundef nonnull readonly align 8 dereferenceable(1952) %this, ptr noundef %I) local_unnamed_addr #2 align 2 {
entry:
  %instructionNumbers_ = getelementptr inbounds i8, ptr %this, i64 32
  %0 = load ptr, ptr %instructionNumbers_, align 8
  %NumBuckets.i.i.i.i = getelementptr inbounds i8, ptr %this, i64 48
  %1 = load i32, ptr %NumBuckets.i.i.i.i, align 8
  %cmp.i.i = icmp eq i32 %1, 0
  br i1 %cmp.i.i, label %_ZNK4llvh12DenseMapBaseINS_8DenseMapIPN6hermes11InstructionEjNS_12DenseMapInfoIS4_EENS_6detail12DenseMapPairIS4_jEEEES4_jS6_S9_E5countEPKS3_.exit, label %if.end.i.i

if.end.i.i:                                       ; preds = %entry
  %2 = ptrtoint ptr %I to i64
  %conv.i.i.i.i = trunc i64 %2 to i32
  %shr.i.i.i.i = lshr i32 %conv.i.i.i.i, 4
  %shr2.i.i.i.i = lshr i32 %conv.i.i.i.i, 9
  %xor.i.i.i.i = xor i32 %shr.i.i.i.i, %shr2.i.i.i.i
  %sub.i.i = add i32 %1, -1
  %BucketNo.019.i.i = and i32 %sub.i.i, %xor.i.i.i.i
  %idx.ext20.i.i = zext nneg i32 %BucketNo.019.i.i to i64
  %add.ptr21.i.i = getelementptr inbounds %"struct.llvh::detail::DenseMapPair.92", ptr %0, i64 %idx.ext20.i.i
  %3 = load ptr, ptr %add.ptr21.i.i, align 8
  %cmp.i22.i.i = icmp eq ptr %3, %I
  br i1 %cmp.i22.i.i, label %_ZNK4llvh12DenseMapBaseINS_8DenseMapIPN6hermes11InstructionEjNS_12DenseMapInfoIS4_EENS_6detail12DenseMapPairIS4_jEEEES4_jS6_S9_E5countEPKS3_.exit, label %if.end9.i.i

if.end9.i.i:                                      ; preds = %if.end.i.i, %if.end13.i.i
  %4 = phi ptr [ %5, %if.end13.i.i ], [ %3, %if.end.i.i ]
  %BucketNo.025.i.i = phi i32 [ %BucketNo.0.i.i, %if.end13.i.i ], [ %BucketNo.019.i.i, %if.end.i.i ]
  %ProbeAmt.024.i.i = phi i32 [ %inc.i.i, %if.end13.i.i ], [ 1, %if.end.i.i ]
  %cmp.i15.i.i.not = icmp ne ptr %4, inttoptr (i64 -8 to ptr)
  br i1 %cmp.i15.i.i.not, label %if.end13.i.i, label %_ZNK4llvh12DenseMapBaseINS_8DenseMapIPN6hermes11InstructionEjNS_12DenseMapInfoIS4_EENS_6detail12DenseMapPairIS4_jEEEES4_jS6_S9_E5countEPKS3_.exit

if.end13.i.i:                                     ; preds = %if.end9.i.i
  %inc.i.i = add i32 %ProbeAmt.024.i.i, 1
  %add.i.i = add i32 %ProbeAmt.024.i.i, %BucketNo.025.i.i
  %BucketNo.0.i.i = and i32 %add.i.i, %sub.i.i
  %idx.ext.i.i = zext i32 %BucketNo.0.i.i to i64
  %add.ptr.i.i = getelementptr inbounds %"struct.llvh::detail::DenseMapPair.92", ptr %0, i64 %idx.ext.i.i
  %5 = load ptr, ptr %add.ptr.i.i, align 8
  %cmp.i.i.i = icmp eq ptr %5, %I
  br i1 %cmp.i.i.i, label %_ZNK4llvh12DenseMapBaseINS_8DenseMapIPN6hermes11InstructionEjNS_12DenseMapInfoIS4_EENS_6detail12DenseMapPairIS4_jEEEES4_jS6_S9_E5countEPKS3_.exit, label %if.end9.i.i, !llvm.loop !26

_ZNK4llvh12DenseMapBaseINS_8DenseMapIPN6hermes11InstructionEjNS_12DenseMapInfoIS4_EENS_6detail12DenseMapPairIS4_jEEEES4_jS6_S9_E5countEPKS3_.exit: ; preds = %if.end9.i.i, %if.end13.i.i, %entry, %if.end.i.i
  %tobool = phi i1 [ false, %entry ], [ true, %if.end.i.i ], [ %cmp.i15.i.i.not, %if.end13.i.i ], [ %cmp.i15.i.i.not, %if.end9.i.i ]
  ret i1 %tobool
}